target datalayout = "e-m:e-p270:32:32-p271:32:32-p272:64:64-i64:64-i128:128-f80:128-n8:16:32:64-S128"
target triple = "x86_64-pc-linux-gnu"

%"class.cv::Subdiv2D" = type { %"class.std::vector", %"class.std::vector.0", i32, i32, i8, i32, %"class.cv::Point_", %"class.cv::Point_" }
%"class.std::vector" = type { %"struct.std::_Vector_base" }
%"struct.std::_Vector_base" = type { %"struct.std::_Vector_base<cv::Subdiv2D::Vertex, std::allocator<cv::Subdiv2D::Vertex>>::_Vector_impl" }
%"struct.std::_Vector_base<cv::Subdiv2D::Vertex, std::allocator<cv::Subdiv2D::Vertex>>::_Vector_impl" = type { %"struct.std::_Vector_base<cv::Subdiv2D::Vertex, std::allocator<cv::Subdiv2D::Vertex>>::_Vector_impl_data" }
%"struct.std::_Vector_base<cv::Subdiv2D::Vertex, std::allocator<cv::Subdiv2D::Vertex>>::_Vector_impl_data" = type { ptr, ptr, ptr }
%"class.std::vector.0" = type { %"struct.std::_Vector_base.1" }
%"struct.std::_Vector_base.1" = type { %"struct.std::_Vector_base<cv::Subdiv2D::QuadEdge, std::allocator<cv::Subdiv2D::QuadEdge>>::_Vector_impl" }
%"struct.std::_Vector_base<cv::Subdiv2D::QuadEdge, std::allocator<cv::Subdiv2D::QuadEdge>>::_Vector_impl" = type { %"struct.std::_Vector_base<cv::Subdiv2D::QuadEdge, std::allocator<cv::Subdiv2D::QuadEdge>>::_Vector_impl_data" }
%"struct.std::_Vector_base<cv::Subdiv2D::QuadEdge, std::allocator<cv::Subdiv2D::QuadEdge>>::_Vector_impl_data" = type { ptr, ptr, ptr }
%"class.cv::Point_" = type { float, float }
%"struct.cv::Subdiv2D::QuadEdge" = type { [4 x i32], [4 x i32] }
%"struct.cv::Subdiv2D::Vertex" = type { i32, i32, %"class.cv::Point_" }

; Function Attrs: mustprogress nounwind uwtable
define linkonce_odr hidden noundef nonnull align 4 dereferenceable(16) ptr @_ZNKSt6vectorIN2cv8Subdiv2D6VertexESaIS2_EEixEm(ptr noundef nonnull align 8 dereferenceable(24) %0, i64 noundef %1) #0 comdat align 2 {
  %3 = alloca ptr, align 8
  %4 = alloca i64, align 8
  store ptr %0, ptr %3, align 8, !tbaa !22
  store i64 %1, ptr %4, align 8, !tbaa !12
  %5 = load ptr, ptr %3, align 8
  %6 = getelementptr inbounds nuw %"struct.std::_Vector_base", ptr %5, i32 0, i32 0
  %7 = getelementptr inbounds nuw %"struct.std::_Vector_base<cv::Subdiv2D::Vertex, std::allocator<cv::Subdiv2D::Vertex>>::_Vector_impl_data", ptr %6, i32 0, i32 0
  %8 = load ptr, ptr %7, align 8, !tbaa !24
  %9 = load i64, ptr %4, align 8, !tbaa !12
  %10 = getelementptr inbounds nuw %"struct.cv::Subdiv2D::Vertex", ptr %8, i64 %9
  ret ptr %10
}

; Function Attrs: mustprogress nounwind uwtable
define linkonce_odr hidden noundef nonnull align 4 dereferenceable(32) ptr @_ZNKSt6vectorIN2cv8Subdiv2D8QuadEdgeESaIS2_EEixEm(ptr noundef nonnull align 8 dereferenceable(24) %0, i64 noundef %1) #0 comdat align 2 {
  %3 = alloca ptr, align 8
  %4 = alloca i64, align 8
  store ptr %0, ptr %3, align 8, !tbaa !10
  store i64 %1, ptr %4, align 8, !tbaa !12
  %5 = load ptr, ptr %3, align 8
  %6 = getelementptr inbounds nuw %"struct.std::_Vector_base.1", ptr %5, i32 0, i32 0
  %7 = getelementptr inbounds nuw %"struct.std::_Vector_base<cv::Subdiv2D::QuadEdge, std::allocator<cv::Subdiv2D::QuadEdge>>::_Vector_impl_data", ptr %6, i32 0, i32 0
  %8 = load ptr, ptr %7, align 8, !tbaa !14
  %9 = load i64, ptr %4, align 8, !tbaa !12
  %10 = getelementptr inbounds nuw %"struct.cv::Subdiv2D::QuadEdge", ptr %8, i64 %9
  ret ptr %10
}

; Function Attrs: mustprogress nounwind uwtable
define internal noundef double @_ZN2cvL12triangleAreaENS_6Point_IfEES1_S1_(<2 x float> %0, <2 x float> %1, <2 x float> %2) #3 {
  %4 = alloca %"class.cv::Point_", align 4
  %5 = alloca %"class.cv::Point_", align 4
  %6 = alloca %"class.cv::Point_", align 4
  store <2 x float> %0, ptr %4, align 4
  store <2 x float> %1, ptr %5, align 4
  store <2 x float> %2, ptr %6, align 4
  %7 = getelementptr inbounds nuw %"class.cv::Point_", ptr %5, i32 0, i32 0
  %8 = load float, ptr %7, align 4, !tbaa !44
  %9 = fpext float %8 to double
  %10 = getelementptr inbounds nuw %"class.cv::Point_", ptr %4, i32 0, i32 0
  %11 = load float, ptr %10, align 4, !tbaa !44
  %12 = fpext float %11 to double
  %13 = fsub double %9, %12
  %14 = getelementptr inbounds nuw %"class.cv::Point_", ptr %6, i32 0, i32 1
  %15 = load float, ptr %14, align 4, !tbaa !45
  %16 = fpext float %15 to double
  %17 = getelementptr inbounds nuw %"class.cv::Point_", ptr %4, i32 0, i32 1
  %18 = load float, ptr %17, align 4, !tbaa !45
  %19 = fpext float %18 to double
  %20 = fsub double %16, %19
  %21 = getelementptr inbounds nuw %"class.cv::Point_", ptr %5, i32 0, i32 1
  %22 = load float, ptr %21, align 4, !tbaa !45
  %23 = fpext float %22 to double
  %24 = getelementptr inbounds nuw %"class.cv::Point_", ptr %4, i32 0, i32 1
  %25 = load float, ptr %24, align 4, !tbaa !45
  %26 = fpext float %25 to double
  %27 = fsub double %23, %26
  %28 = getelementptr inbounds nuw %"class.cv::Point_", ptr %6, i32 0, i32 0
  %29 = load float, ptr %28, align 4, !tbaa !44
  %30 = fpext float %29 to double
  %31 = getelementptr inbounds nuw %"class.cv::Point_", ptr %4, i32 0, i32 0
  %32 = load float, ptr %31, align 4, !tbaa !44
  %33 = fpext float %32 to double
  %34 = fsub double %30, %33
  %35 = fmul double %27, %34
  %36 = fneg double %35
  %37 = call double @llvm.fmuladd.f64(double %13, double %20, double %36)
  ret double %37
}

; Function Attrs: mustprogress nounwind uwtable
define noundef i32 @_ZNK2cv8Subdiv2D7edgeDstEiPNS_6Point_IfEE(ptr noundef nonnull align 8 dereferenceable(80) %0, i32 noundef %1, ptr noundef %2) #0 align 2 {
  %4 = alloca ptr, align 8
  %5 = alloca i32, align 4
  %6 = alloca ptr, align 8
  %7 = alloca i32, align 4
  store ptr %0, ptr %4, align 8, !tbaa !3
  store i32 %1, ptr %5, align 4, !tbaa !8
  store ptr %2, ptr %6, align 8, !tbaa !17
  %8 = load ptr, ptr %4, align 8
  call void @llvm.lifetime.start.p0(i64 4, ptr %7) #20
  %9 = getelementptr inbounds nuw %"class.cv::Subdiv2D", ptr %8, i32 0, i32 1
  %10 = load i32, ptr %5, align 4, !tbaa !8
  %11 = ashr i32 %10, 2
  %12 = sext i32 %11 to i64
  %13 = call noundef nonnull align 4 dereferenceable(32) ptr @_ZNKSt6vectorIN2cv8Subdiv2D8QuadEdgeESaIS2_EEixEm(ptr noundef nonnull align 8 dereferenceable(24) %9, i64 noundef %12) #20
  %14 = getelementptr inbounds nuw %"struct.cv::Subdiv2D::QuadEdge", ptr %13, i32 0, i32 1
  %15 = load i32, ptr %5, align 4, !tbaa !8
  %16 = add nsw i32 %15, 2
  %17 = and i32 %16, 3
  %18 = sext i32 %17 to i64
  %19 = getelementptr inbounds [4 x i32], ptr %14, i64 0, i64 %18
  %20 = load i32, ptr %19, align 4, !tbaa !8
  store i32 %20, ptr %7, align 4, !tbaa !8
  %21 = load ptr, ptr %6, align 8, !tbaa !17
  %22 = icmp ne ptr %21, null
  br i1 %22, label %23, label %30

23:                                               ; preds = %3
  %24 = getelementptr inbounds nuw %"class.cv::Subdiv2D", ptr %8, i32 0, i32 0
  %25 = load i32, ptr %7, align 4, !tbaa !8
  %26 = sext i32 %25 to i64
  %27 = call noundef nonnull align 4 dereferenceable(16) ptr @_ZNKSt6vectorIN2cv8Subdiv2D6VertexESaIS2_EEixEm(ptr noundef nonnull align 8 dereferenceable(24) %24, i64 noundef %26) #20
  %28 = getelementptr inbounds nuw %"struct.cv::Subdiv2D::Vertex", ptr %27, i32 0, i32 2
  %29 = load ptr, ptr %6, align 8, !tbaa !17
  call void @llvm.memcpy.p0.p0.i64(ptr align 4 %29, ptr align 4 %28, i64 8, i1 false), !tbaa.struct !19
  br label %30

30:                                               ; preds = %23, %3
  %31 = load i32, ptr %7, align 4, !tbaa !8
  call void @llvm.lifetime.end.p0(i64 4, ptr %7) #20
  ret i32 %31
}

; Function Attrs: mustprogress nounwind uwtable
define noundef i32 @_ZNK2cv8Subdiv2D7edgeOrgEiPNS_6Point_IfEE(ptr noundef nonnull align 8 dereferenceable(80) %0, i32 noundef %1, ptr noundef %2) #0 align 2 {
  %4 = alloca ptr, align 8
  %5 = alloca i32, align 4
  %6 = alloca ptr, align 8
  %7 = alloca i32, align 4
  store ptr %0, ptr %4, align 8, !tbaa !3
  store i32 %1, ptr %5, align 4, !tbaa !8
  store ptr %2, ptr %6, align 8, !tbaa !17
  %8 = load ptr, ptr %4, align 8
  call void @llvm.lifetime.start.p0(i64 4, ptr %7) #20
  %9 = getelementptr inbounds nuw %"class.cv::Subdiv2D", ptr %8, i32 0, i32 1
  %10 = load i32, ptr %5, align 4, !tbaa !8
  %11 = ashr i32 %10, 2
  %12 = sext i32 %11 to i64
  %13 = call noundef nonnull align 4 dereferenceable(32) ptr @_ZNKSt6vectorIN2cv8Subdiv2D8QuadEdgeESaIS2_EEixEm(ptr noundef nonnull align 8 dereferenceable(24) %9, i64 noundef %12) #20
  %14 = getelementptr inbounds nuw %"struct.cv::Subdiv2D::QuadEdge", ptr %13, i32 0, i32 1
  %15 = load i32, ptr %5, align 4, !tbaa !8
  %16 = and i32 %15, 3
  %17 = sext i32 %16 to i64
  %18 = getelementptr inbounds [4 x i32], ptr %14, i64 0, i64 %17
  %19 = load i32, ptr %18, align 4, !tbaa !8
  store i32 %19, ptr %7, align 4, !tbaa !8
  %20 = load ptr, ptr %6, align 8, !tbaa !17
  %21 = icmp ne ptr %20, null
  br i1 %21, label %22, label %29

22:                                               ; preds = %3
  %23 = getelementptr inbounds nuw %"class.cv::Subdiv2D", ptr %8, i32 0, i32 0
  %24 = load i32, ptr %7, align 4, !tbaa !8
  %25 = sext i32 %24 to i64
  %26 = call noundef nonnull align 4 dereferenceable(16) ptr @_ZNKSt6vectorIN2cv8Subdiv2D6VertexESaIS2_EEixEm(ptr noundef nonnull align 8 dereferenceable(24) %23, i64 noundef %25) #20
  %27 = getelementptr inbounds nuw %"struct.cv::Subdiv2D::Vertex", ptr %26, i32 0, i32 2
  %28 = load ptr, ptr %6, align 8, !tbaa !17
  call void @llvm.memcpy.p0.p0.i64(ptr align 4 %28, ptr align 4 %27, i64 8, i1 false), !tbaa.struct !19
  br label %29

29:                                               ; preds = %22, %3
  %30 = load i32, ptr %7, align 4, !tbaa !8
  call void @llvm.lifetime.end.p0(i64 4, ptr %7) #20
  ret i32 %30
}

; Function Attrs: inlinehint mustprogress nounwind uwtable
define linkonce_odr hidden void @_ZN2cv6Point_IfEC2Ev(ptr noundef nonnull align 4 dereferenceable(8) %0) unnamed_addr #5 comdat align 2 {
  %2 = alloca ptr, align 8
  store ptr %0, ptr %2, align 8, !tbaa !17
  %3 = load ptr, ptr %2, align 8
  %4 = getelementptr inbounds nuw %"class.cv::Point_", ptr %3, i32 0, i32 0
  store float 0.000000e+00, ptr %4, align 4, !tbaa !44
  %5 = getelementptr inbounds nuw %"class.cv::Point_", ptr %3, i32 0, i32 1
  store float 0.000000e+00, ptr %5, align 4, !tbaa !45
  ret void
}

; Function Attrs: mustprogress uwtable
define noundef i32 @_ZNK2cv8Subdiv2D9isRightOfENS_6Point_IfEEi(ptr noundef nonnull align 8 dereferenceable(80) %0, <2 x float> %1, i32 noundef %2) #6 align 2 {
  %4 = alloca %"class.cv::Point_", align 4
  %5 = alloca ptr, align 8
  %6 = alloca i32, align 4
  %7 = alloca %"class.cv::Point_", align 4
  %8 = alloca %"class.cv::Point_", align 4
  %9 = alloca double, align 8
  %10 = alloca %"class.cv::Point_", align 4
  %11 = alloca %"class.cv::Point_", align 4
  %12 = alloca %"class.cv::Point_", align 4
  store <2 x float> %1, ptr %4, align 4
  store ptr %0, ptr %5, align 8, !tbaa !3
  store i32 %2, ptr %6, align 4, !tbaa !8
  %13 = load ptr, ptr %5, align 8
  call void @llvm.lifetime.start.p0(i64 8, ptr %7) #20
  call void @_ZN2cv6Point_IfEC2Ev(ptr noundef nonnull align 4 dereferenceable(8) %7)
  call void @llvm.lifetime.start.p0(i64 8, ptr %8) #20
  call void @_ZN2cv6Point_IfEC2Ev(ptr noundef nonnull align 4 dereferenceable(8) %8)
  %14 = load i32, ptr %6, align 4, !tbaa !8
  %15 = call noundef i32 @_ZNK2cv8Subdiv2D7edgeOrgEiPNS_6Point_IfEE(ptr noundef nonnull align 8 dereferenceable(80) %13, i32 noundef %14, ptr noundef %7)
  %16 = load i32, ptr %6, align 4, !tbaa !8
  %17 = call noundef i32 @_ZNK2cv8Subdiv2D7edgeDstEiPNS_6Point_IfEE(ptr noundef nonnull align 8 dereferenceable(80) %13, i32 noundef %16, ptr noundef %8)
  call void @llvm.lifetime.start.p0(i64 8, ptr %9) #20
  call void @llvm.memcpy.p0.p0.i64(ptr align 4 %10, ptr align 4 %4, i64 8, i1 false), !tbaa.struct !19
  call void @llvm.memcpy.p0.p0.i64(ptr align 4 %11, ptr align 4 %8, i64 8, i1 false), !tbaa.struct !19
  call void @llvm.memcpy.p0.p0.i64(ptr align 4 %12, ptr align 4 %7, i64 8, i1 false), !tbaa.struct !19
  %18 = load <2 x float>, ptr %10, align 4
  %19 = load <2 x float>, ptr %11, align 4
  %20 = load <2 x float>, ptr %12, align 4
  %21 = call noundef double @_ZN2cvL12triangleAreaENS_6Point_IfEES1_S1_(<2 x float> %18, <2 x float> %19, <2 x float> %20)
  store double %21, ptr %9, align 8, !tbaa !62
  %22 = load double, ptr %9, align 8, !tbaa !62
  %23 = fcmp ogt double %22, 0.000000e+00
  %24 = zext i1 %23 to i32
  %25 = load double, ptr %9, align 8, !tbaa !62
  %26 = fcmp olt double %25, 0.000000e+00
  %27 = zext i1 %26 to i32
  %28 = sub nsw i32 %24, %27
  call void @llvm.lifetime.end.p0(i64 8, ptr %9) #20
  call void @llvm.lifetime.end.p0(i64 8, ptr %8) #20
  call void @llvm.lifetime.end.p0(i64 8, ptr %7) #20
  ret i32 %28
}