; Function Attrs: mustprogress nofree norecurse nosync nounwind willreturn memory(read, inaccessiblemem: none) uwtable
define noundef range(i32 -1, 2) i32 @_ZNK2cv8Subdiv2D9isRightOfENS_6Point_IfEEi(ptr noundef nonnull readonly align 8 captures(none) dereferenceable(80) %0, <2 x float> %1, i32 noundef %2) local_unnamed_addr #13 align 2 {
  %4 = getelementptr inbounds nuw i8, ptr %0, i64 24
  %5 = ashr i32 %2, 2
  %6 = sext i32 %5 to i64
  %7 = load ptr, ptr %4, align 8, !tbaa !3
  %8 = and i32 %2, 3
  %9 = zext nneg i32 %8 to i64
  %10 = getelementptr inbounds nuw %"struct.cv::Subdiv2D::QuadEdge", ptr %7, i64 %6, i32 1, i64 %9
  %11 = load i32, ptr %10, align 4, !tbaa !9
  %12 = sext i32 %11 to i64
  %13 = load ptr, ptr %0, align 8, !tbaa !11
  %14 = getelementptr inbounds nuw %"struct.cv::Subdiv2D::Vertex", ptr %13, i64 %12, i32 2
  %15 = load <2 x float>, ptr %14, align 4
  %16 = xor i32 %8, 2
  %17 = zext nneg i32 %16 to i64
  %18 = getelementptr inbounds nuw %"struct.cv::Subdiv2D::QuadEdge", ptr %7, i64 %6, i32 1, i64 %17
  %19 = load i32, ptr %18, align 4, !tbaa !9
  %20 = sext i32 %19 to i64
  %21 = getelementptr inbounds nuw %"struct.cv::Subdiv2D::Vertex", ptr %13, i64 %20, i32 2
  %22 = load <2 x float>, ptr %21, align 4
  %.sroa.01.0.vec.extract.i = extractelement <2 x float> %22, i64 0
  %23 = fpext float %.sroa.01.0.vec.extract.i to double
  %.sroa.02.0.vec.extract.i = extractelement <2 x float> %1, i64 0
  %24 = fpext float %.sroa.02.0.vec.extract.i to double
  %25 = fsub double %23, %24
  %.sroa.0.4.vec.extract.i = extractelement <2 x float> %15, i64 1
  %26 = fpext float %.sroa.0.4.vec.extract.i to double
  %.sroa.02.4.vec.extract.i = extractelement <2 x float> %1, i64 1
  %27 = fpext float %.sroa.02.4.vec.extract.i to double
  %28 = fsub double %26, %27
  %.sroa.01.4.vec.extract.i = extractelement <2 x float> %22, i64 1
  %29 = fpext float %.sroa.01.4.vec.extract.i to double
  %30 = fsub double %29, %27
  %.sroa.0.0.vec.extract.i = extractelement <2 x float> %15, i64 0
  %31 = fpext float %.sroa.0.0.vec.extract.i to double
  %32 = fsub double %31, %24
  %33 = fneg double %32
  %34 = fmul double %30, %33
  %35 = tail call noundef double @llvm.fmuladd.f64(double %25, double %28, double %34)
  %36 = fcmp ogt double %35, 0.000000e+00
  %37 = zext i1 %36 to i32
  %38 = fcmp olt double %35, 0.000000e+00
  %.neg = sext i1 %38 to i32
  %39 = add nsw i32 %.neg, %37
  ret i32 %39
}